(lp0
I22219
aI4232
aI29636
aI72604
aI11023
aI38845
aI98102
aI33235
aI71099
aI13481
aI2309
aI69710
aI74228
aI92149
aI38544
aI13394
aI60531
aI14898
aI15847
aI54206
aI44900
aI21278
aI6537
aI94234
aI62504
aI52812
aI12251
aI36755
aI77820
aI34333
a.