(lp0
I30364
aI65037
aI13940
aI23415
aI54142
aI80800
aI87015
aI51736
aI55812
aI35493
aI2517
aI57426
aI7244
aI20394
aI80278
aI17546
aI91573
aI78437
aI1861
aI53596
aI46306
aI32516
aI56211
aI94218
aI60930
aI25071
aI16502
aI60281
aI36050
aI91740
a.